
LearnC++.out:     file format elf64-x86-64


Disassembly of section .init:

0000000000001000 <_init>:
    1000:	f3 0f 1e fa          	endbr64 
    1004:	48 83 ec 08          	sub    $0x8,%rsp
    1008:	48 8b 05 d9 2f 00 00 	mov    0x2fd9(%rip),%rax        # 3fe8 <__gmon_start__@Base>
    100f:	48 85 c0             	test   %rax,%rax
    1012:	74 02                	je     1016 <_init+0x16>
    1014:	ff d0                	call   *%rax
    1016:	48 83 c4 08          	add    $0x8,%rsp
    101a:	c3                   	ret    

Disassembly of section .plt:

0000000000001020 <.plt>:
    1020:	ff 35 5a 2f 00 00    	push   0x2f5a(%rip)        # 3f80 <_GLOBAL_OFFSET_TABLE_+0x8>
    1026:	f2 ff 25 5b 2f 00 00 	bnd jmp *0x2f5b(%rip)        # 3f88 <_GLOBAL_OFFSET_TABLE_+0x10>
    102d:	0f 1f 00             	nopl   (%rax)
    1030:	f3 0f 1e fa          	endbr64 
    1034:	68 00 00 00 00       	push   $0x0
    1039:	f2 e9 e1 ff ff ff    	bnd jmp 1020 <_init+0x20>
    103f:	90                   	nop
    1040:	f3 0f 1e fa          	endbr64 
    1044:	68 01 00 00 00       	push   $0x1
    1049:	f2 e9 d1 ff ff ff    	bnd jmp 1020 <_init+0x20>
    104f:	90                   	nop
    1050:	f3 0f 1e fa          	endbr64 
    1054:	68 02 00 00 00       	push   $0x2
    1059:	f2 e9 c1 ff ff ff    	bnd jmp 1020 <_init+0x20>
    105f:	90                   	nop
    1060:	f3 0f 1e fa          	endbr64 
    1064:	68 03 00 00 00       	push   $0x3
    1069:	f2 e9 b1 ff ff ff    	bnd jmp 1020 <_init+0x20>
    106f:	90                   	nop
    1070:	f3 0f 1e fa          	endbr64 
    1074:	68 04 00 00 00       	push   $0x4
    1079:	f2 e9 a1 ff ff ff    	bnd jmp 1020 <_init+0x20>
    107f:	90                   	nop
    1080:	f3 0f 1e fa          	endbr64 
    1084:	68 05 00 00 00       	push   $0x5
    1089:	f2 e9 91 ff ff ff    	bnd jmp 1020 <_init+0x20>
    108f:	90                   	nop
    1090:	f3 0f 1e fa          	endbr64 
    1094:	68 06 00 00 00       	push   $0x6
    1099:	f2 e9 81 ff ff ff    	bnd jmp 1020 <_init+0x20>
    109f:	90                   	nop

Disassembly of section .plt.got:

00000000000010a0 <__cxa_finalize@plt>:
    10a0:	f3 0f 1e fa          	endbr64 
    10a4:	f2 ff 25 1d 2f 00 00 	bnd jmp *0x2f1d(%rip)        # 3fc8 <__cxa_finalize@GLIBC_2.2.5>
    10ab:	0f 1f 44 00 00       	nopl   0x0(%rax,%rax,1)

Disassembly of section .plt.sec:

00000000000010b0 <_ZNSirsERi@plt>:
    10b0:	f3 0f 1e fa          	endbr64 
    10b4:	f2 ff 25 d5 2e 00 00 	bnd jmp *0x2ed5(%rip)        # 3f90 <_ZNSirsERi@GLIBCXX_3.4>
    10bb:	0f 1f 44 00 00       	nopl   0x0(%rax,%rax,1)

00000000000010c0 <__cxa_atexit@plt>:
    10c0:	f3 0f 1e fa          	endbr64 
    10c4:	f2 ff 25 cd 2e 00 00 	bnd jmp *0x2ecd(%rip)        # 3f98 <__cxa_atexit@GLIBC_2.2.5>
    10cb:	0f 1f 44 00 00       	nopl   0x0(%rax,%rax,1)

00000000000010d0 <_ZStlsISt11char_traitsIcEERSt13basic_ostreamIcT_ES5_PKc@plt>:
    10d0:	f3 0f 1e fa          	endbr64 
    10d4:	f2 ff 25 c5 2e 00 00 	bnd jmp *0x2ec5(%rip)        # 3fa0 <_ZStlsISt11char_traitsIcEERSt13basic_ostreamIcT_ES5_PKc@GLIBCXX_3.4>
    10db:	0f 1f 44 00 00       	nopl   0x0(%rax,%rax,1)

00000000000010e0 <_ZNSolsEPFRSoS_E@plt>:
    10e0:	f3 0f 1e fa          	endbr64 
    10e4:	f2 ff 25 bd 2e 00 00 	bnd jmp *0x2ebd(%rip)        # 3fa8 <_ZNSolsEPFRSoS_E@GLIBCXX_3.4>
    10eb:	0f 1f 44 00 00       	nopl   0x0(%rax,%rax,1)

00000000000010f0 <__stack_chk_fail@plt>:
    10f0:	f3 0f 1e fa          	endbr64 
    10f4:	f2 ff 25 b5 2e 00 00 	bnd jmp *0x2eb5(%rip)        # 3fb0 <__stack_chk_fail@GLIBC_2.4>
    10fb:	0f 1f 44 00 00       	nopl   0x0(%rax,%rax,1)

0000000000001100 <_ZNSt8ios_base4InitC1Ev@plt>:
    1100:	f3 0f 1e fa          	endbr64 
    1104:	f2 ff 25 ad 2e 00 00 	bnd jmp *0x2ead(%rip)        # 3fb8 <_ZNSt8ios_base4InitC1Ev@GLIBCXX_3.4>
    110b:	0f 1f 44 00 00       	nopl   0x0(%rax,%rax,1)

0000000000001110 <_ZNSolsEi@plt>:
    1110:	f3 0f 1e fa          	endbr64 
    1114:	f2 ff 25 a5 2e 00 00 	bnd jmp *0x2ea5(%rip)        # 3fc0 <_ZNSolsEi@GLIBCXX_3.4>
    111b:	0f 1f 44 00 00       	nopl   0x0(%rax,%rax,1)

Disassembly of section .text:

0000000000001120 <_start>:
    1120:	f3 0f 1e fa          	endbr64 
    1124:	31 ed                	xor    %ebp,%ebp
    1126:	49 89 d1             	mov    %rdx,%r9
    1129:	5e                   	pop    %rsi
    112a:	48 89 e2             	mov    %rsp,%rdx
    112d:	48 83 e4 f0          	and    $0xfffffffffffffff0,%rsp
    1131:	50                   	push   %rax
    1132:	54                   	push   %rsp
    1133:	45 31 c0             	xor    %r8d,%r8d
    1136:	31 c9                	xor    %ecx,%ecx
    1138:	48 8d 3d ca 00 00 00 	lea    0xca(%rip),%rdi        # 1209 <main>
    113f:	ff 15 93 2e 00 00    	call   *0x2e93(%rip)        # 3fd8 <__libc_start_main@GLIBC_2.34>
    1145:	f4                   	hlt    
    1146:	66 2e 0f 1f 84 00 00 	cs nopw 0x0(%rax,%rax,1)
    114d:	00 00 00 

0000000000001150 <deregister_tm_clones>:
    1150:	48 8d 3d b9 2e 00 00 	lea    0x2eb9(%rip),%rdi        # 4010 <__TMC_END__>
    1157:	48 8d 05 b2 2e 00 00 	lea    0x2eb2(%rip),%rax        # 4010 <__TMC_END__>
    115e:	48 39 f8             	cmp    %rdi,%rax
    1161:	74 15                	je     1178 <deregister_tm_clones+0x28>
    1163:	48 8b 05 76 2e 00 00 	mov    0x2e76(%rip),%rax        # 3fe0 <_ITM_deregisterTMCloneTable@Base>
    116a:	48 85 c0             	test   %rax,%rax
    116d:	74 09                	je     1178 <deregister_tm_clones+0x28>
    116f:	ff e0                	jmp    *%rax
    1171:	0f 1f 80 00 00 00 00 	nopl   0x0(%rax)
    1178:	c3                   	ret    
    1179:	0f 1f 80 00 00 00 00 	nopl   0x0(%rax)

0000000000001180 <register_tm_clones>:
    1180:	48 8d 3d 89 2e 00 00 	lea    0x2e89(%rip),%rdi        # 4010 <__TMC_END__>
    1187:	48 8d 35 82 2e 00 00 	lea    0x2e82(%rip),%rsi        # 4010 <__TMC_END__>
    118e:	48 29 fe             	sub    %rdi,%rsi
    1191:	48 89 f0             	mov    %rsi,%rax
    1194:	48 c1 ee 3f          	shr    $0x3f,%rsi
    1198:	48 c1 f8 03          	sar    $0x3,%rax
    119c:	48 01 c6             	add    %rax,%rsi
    119f:	48 d1 fe             	sar    %rsi
    11a2:	74 14                	je     11b8 <register_tm_clones+0x38>
    11a4:	48 8b 05 45 2e 00 00 	mov    0x2e45(%rip),%rax        # 3ff0 <_ITM_registerTMCloneTable@Base>
    11ab:	48 85 c0             	test   %rax,%rax
    11ae:	74 08                	je     11b8 <register_tm_clones+0x38>
    11b0:	ff e0                	jmp    *%rax
    11b2:	66 0f 1f 44 00 00    	nopw   0x0(%rax,%rax,1)
    11b8:	c3                   	ret    
    11b9:	0f 1f 80 00 00 00 00 	nopl   0x0(%rax)

00000000000011c0 <__do_global_dtors_aux>:
    11c0:	f3 0f 1e fa          	endbr64 
    11c4:	80 3d ad 30 00 00 00 	cmpb   $0x0,0x30ad(%rip)        # 4278 <completed.0>
    11cb:	75 2b                	jne    11f8 <__do_global_dtors_aux+0x38>
    11cd:	55                   	push   %rbp
    11ce:	48 83 3d f2 2d 00 00 	cmpq   $0x0,0x2df2(%rip)        # 3fc8 <__cxa_finalize@GLIBC_2.2.5>
    11d5:	00 
    11d6:	48 89 e5             	mov    %rsp,%rbp
    11d9:	74 0c                	je     11e7 <__do_global_dtors_aux+0x27>
    11db:	48 8b 3d 26 2e 00 00 	mov    0x2e26(%rip),%rdi        # 4008 <__dso_handle>
    11e2:	e8 b9 fe ff ff       	call   10a0 <__cxa_finalize@plt>
    11e7:	e8 64 ff ff ff       	call   1150 <deregister_tm_clones>
    11ec:	c6 05 85 30 00 00 01 	movb   $0x1,0x3085(%rip)        # 4278 <completed.0>
    11f3:	5d                   	pop    %rbp
    11f4:	c3                   	ret    
    11f5:	0f 1f 00             	nopl   (%rax)
    11f8:	c3                   	ret    
    11f9:	0f 1f 80 00 00 00 00 	nopl   0x0(%rax)

0000000000001200 <frame_dummy>:
    1200:	f3 0f 1e fa          	endbr64 
    1204:	e9 77 ff ff ff       	jmp    1180 <register_tm_clones>

0000000000001209 <main>:
    1209:	f3 0f 1e fa          	endbr64 
    120d:	55                   	push   %rbp
    120e:	48 89 e5             	mov    %rsp,%rbp
    1211:	48 83 ec 40          	sub    $0x40,%rsp
    1215:	64 48 8b 04 25 28 00 	mov    %fs:0x28,%rax
    121c:	00 00 
    121e:	48 89 45 f8          	mov    %rax,-0x8(%rbp)
    1222:	31 c0                	xor    %eax,%eax
    1224:	c7 45 c4 00 00 00 00 	movl   $0x0,-0x3c(%rbp)
    122b:	e9 ab 00 00 00       	jmp    12db <main+0xd2>
    1230:	c7 45 c8 00 00 00 00 	movl   $0x0,-0x38(%rbp)
    1237:	eb 7b                	jmp    12b4 <main+0xab>
    1239:	48 8d 4d d0          	lea    -0x30(%rbp),%rcx
    123d:	8b 45 c8             	mov    -0x38(%rbp),%eax
    1240:	48 63 f0             	movslq %eax,%rsi
    1243:	8b 45 c4             	mov    -0x3c(%rbp),%eax
    1246:	48 63 d0             	movslq %eax,%rdx
    1249:	48 89 d0             	mov    %rdx,%rax
    124c:	48 01 c0             	add    %rax,%rax
    124f:	48 01 d0             	add    %rdx,%rax
    1252:	48 01 f0             	add    %rsi,%rax
    1255:	48 c1 e0 02          	shl    $0x2,%rax
    1259:	48 01 c8             	add    %rcx,%rax
    125c:	48 89 c6             	mov    %rax,%rsi
    125f:	48 8d 05 fa 2e 00 00 	lea    0x2efa(%rip),%rax        # 4160 <_ZSt3cin@GLIBCXX_3.4>
    1266:	48 89 c7             	mov    %rax,%rdi
    1269:	e8 42 fe ff ff       	call   10b0 <_ZNSirsERi@plt>
    126e:	8b 45 c8             	mov    -0x38(%rbp),%eax
    1271:	48 63 c8             	movslq %eax,%rcx
    1274:	8b 45 c4             	mov    -0x3c(%rbp),%eax
    1277:	48 63 d0             	movslq %eax,%rdx
    127a:	48 89 d0             	mov    %rdx,%rax
    127d:	48 01 c0             	add    %rax,%rax
    1280:	48 01 d0             	add    %rdx,%rax
    1283:	48 01 c8             	add    %rcx,%rax
    1286:	8b 44 85 d0          	mov    -0x30(%rbp,%rax,4),%eax
    128a:	89 c6                	mov    %eax,%esi
    128c:	48 8d 05 ad 2d 00 00 	lea    0x2dad(%rip),%rax        # 4040 <_ZSt4cout@GLIBCXX_3.4>
    1293:	48 89 c7             	mov    %rax,%rdi
    1296:	e8 75 fe ff ff       	call   1110 <_ZNSolsEi@plt>
    129b:	48 89 c2             	mov    %rax,%rdx
    129e:	48 8d 05 5f 0d 00 00 	lea    0xd5f(%rip),%rax        # 2004 <_IO_stdin_used+0x4>
    12a5:	48 89 c6             	mov    %rax,%rsi
    12a8:	48 89 d7             	mov    %rdx,%rdi
    12ab:	e8 20 fe ff ff       	call   10d0 <_ZStlsISt11char_traitsIcEERSt13basic_ostreamIcT_ES5_PKc@plt>
    12b0:	83 45 c8 01          	addl   $0x1,-0x38(%rbp)
    12b4:	83 7d c8 02          	cmpl   $0x2,-0x38(%rbp)
    12b8:	0f 8e 7b ff ff ff    	jle    1239 <main+0x30>
    12be:	48 8b 05 0b 2d 00 00 	mov    0x2d0b(%rip),%rax        # 3fd0 <_ZSt4endlIcSt11char_traitsIcEERSt13basic_ostreamIT_T0_ES6_@GLIBCXX_3.4>
    12c5:	48 89 c6             	mov    %rax,%rsi
    12c8:	48 8d 05 71 2d 00 00 	lea    0x2d71(%rip),%rax        # 4040 <_ZSt4cout@GLIBCXX_3.4>
    12cf:	48 89 c7             	mov    %rax,%rdi
    12d2:	e8 09 fe ff ff       	call   10e0 <_ZNSolsEPFRSoS_E@plt>
    12d7:	83 45 c4 01          	addl   $0x1,-0x3c(%rbp)
    12db:	83 7d c4 02          	cmpl   $0x2,-0x3c(%rbp)
    12df:	0f 8e 4b ff ff ff    	jle    1230 <main+0x27>
    12e5:	c7 45 cc 00 00 00 00 	movl   $0x0,-0x34(%rbp)
    12ec:	eb 04                	jmp    12f2 <main+0xe9>
    12ee:	83 45 cc 01          	addl   $0x1,-0x34(%rbp)
    12f2:	81 7d cc 7f 96 98 00 	cmpl   $0x98967f,-0x34(%rbp)
    12f9:	7e f3                	jle    12ee <main+0xe5>
    12fb:	b8 00 00 00 00       	mov    $0x0,%eax
    1300:	48 8b 55 f8          	mov    -0x8(%rbp),%rdx
    1304:	64 48 2b 14 25 28 00 	sub    %fs:0x28,%rdx
    130b:	00 00 
    130d:	74 05                	je     1314 <main+0x10b>
    130f:	e8 dc fd ff ff       	call   10f0 <__stack_chk_fail@plt>
    1314:	c9                   	leave  
    1315:	c3                   	ret    

0000000000001316 <_Z41__static_initialization_and_destruction_0ii>:
    1316:	f3 0f 1e fa          	endbr64 
    131a:	55                   	push   %rbp
    131b:	48 89 e5             	mov    %rsp,%rbp
    131e:	48 83 ec 10          	sub    $0x10,%rsp
    1322:	89 7d fc             	mov    %edi,-0x4(%rbp)
    1325:	89 75 f8             	mov    %esi,-0x8(%rbp)
    1328:	83 7d fc 01          	cmpl   $0x1,-0x4(%rbp)
    132c:	75 3b                	jne    1369 <_Z41__static_initialization_and_destruction_0ii+0x53>
    132e:	81 7d f8 ff ff 00 00 	cmpl   $0xffff,-0x8(%rbp)
    1335:	75 32                	jne    1369 <_Z41__static_initialization_and_destruction_0ii+0x53>
    1337:	48 8d 05 3b 2f 00 00 	lea    0x2f3b(%rip),%rax        # 4279 <_ZStL8__ioinit>
    133e:	48 89 c7             	mov    %rax,%rdi
    1341:	e8 ba fd ff ff       	call   1100 <_ZNSt8ios_base4InitC1Ev@plt>
    1346:	48 8d 05 bb 2c 00 00 	lea    0x2cbb(%rip),%rax        # 4008 <__dso_handle>
    134d:	48 89 c2             	mov    %rax,%rdx
    1350:	48 8d 05 22 2f 00 00 	lea    0x2f22(%rip),%rax        # 4279 <_ZStL8__ioinit>
    1357:	48 89 c6             	mov    %rax,%rsi
    135a:	48 8b 05 97 2c 00 00 	mov    0x2c97(%rip),%rax        # 3ff8 <_ZNSt8ios_base4InitD1Ev@GLIBCXX_3.4>
    1361:	48 89 c7             	mov    %rax,%rdi
    1364:	e8 57 fd ff ff       	call   10c0 <__cxa_atexit@plt>
    1369:	90                   	nop
    136a:	c9                   	leave  
    136b:	c3                   	ret    

000000000000136c <_GLOBAL__sub_I_main>:
    136c:	f3 0f 1e fa          	endbr64 
    1370:	55                   	push   %rbp
    1371:	48 89 e5             	mov    %rsp,%rbp
    1374:	be ff ff 00 00       	mov    $0xffff,%esi
    1379:	bf 01 00 00 00       	mov    $0x1,%edi
    137e:	e8 93 ff ff ff       	call   1316 <_Z41__static_initialization_and_destruction_0ii>
    1383:	5d                   	pop    %rbp
    1384:	c3                   	ret    

Disassembly of section .fini:

0000000000001388 <_fini>:
    1388:	f3 0f 1e fa          	endbr64 
    138c:	48 83 ec 08          	sub    $0x8,%rsp
    1390:	48 83 c4 08          	add    $0x8,%rsp
    1394:	c3                   	ret    
